; Function Attrs: mustprogress nofree norecurse nosync nounwind willreturn memory(read, inaccessiblemem: none) uwtable
define noundef ptr @_ZNK19OpenColorIO_v2_5dev6Config28getNamedTransformNameByIndexEi(ptr noundef nonnull readonly align 8 captures(none) dereferenceable(8) %0, i32 noundef %1) local_unnamed_addr #12 align 2 personality ptr @__gxx_personality_v0 {
  %3 = icmp slt i32 %1, 0
  br i1 %3, label %_ZNK19OpenColorIO_v2_5dev6Config28getNamedTransformNameByIndexENS_24NamedTransformVisibilityEi.exit, label %4

4:                                                ; preds = %2
  %5 = load ptr, ptr %0, align 8, !tbaa !34
  %6 = getelementptr inbounds nuw i8, ptr %5, i64 760
  %7 = getelementptr inbounds nuw i8, ptr %5, i64 768
  %8 = load ptr, ptr %7, align 8, !tbaa !206
  %9 = load ptr, ptr %6, align 8, !tbaa !205
  %10 = ptrtoint ptr %8 to i64
  %11 = ptrtoint ptr %9 to i64
  %12 = sub i64 %10, %11
  %13 = lshr exact i64 %12, 5
  %14 = trunc i64 %13 to i32
  %15 = icmp slt i32 %1, %14
  br i1 %15, label %16, label %_ZNK19OpenColorIO_v2_5dev6Config28getNamedTransformNameByIndexENS_24NamedTransformVisibilityEi.exit

16:                                               ; preds = %4
  %17 = zext nneg i32 %1 to i64
  %18 = getelementptr inbounds nuw %"class.std::__cxx11::basic_string", ptr %9, i64 %17
  %19 = load ptr, ptr %18, align 8, !tbaa !29
  br label %_ZNK19OpenColorIO_v2_5dev6Config28getNamedTransformNameByIndexENS_24NamedTransformVisibilityEi.exit

_ZNK19OpenColorIO_v2_5dev6Config28getNamedTransformNameByIndexENS_24NamedTransformVisibilityEi.exit: ; preds = %2, %4, %16
  %.0.i = phi ptr [ %19, %16 ], [ @.str.25, %2 ], [ @.str.25, %4 ]
  ret ptr %.0.i
}